; Function Attrs: mustprogress uwtable
define noundef zeroext i1 @_ZNK3nix15BasicDerivation9isBuiltinEv(ptr noundef nonnull align 8 dereferenceable(272) %0) local_unnamed_addr #4 align 2 personality ptr @__gxx_personality_v0 {
  %2 = alloca %"class.std::__cxx11::basic_string", align 8
  %3 = getelementptr inbounds i8, ptr %0, i64 136
  call void @_ZNSt7__cxx1112basic_stringIcSt11char_traitsIcESaIcEEC2ERKS4_mm(ptr noundef nonnull align 8 dereferenceable(32) %2, ptr noundef nonnull align 8 dereferenceable(32) %3, i64 noundef 0, i64 noundef 8)
  %4 = getelementptr inbounds i8, ptr %2, i64 8
  %5 = load i64, ptr %4, align 8
  %6 = icmp eq i64 %5, 0
  %.pre.pre = load ptr, ptr %2, align 8
  br i1 %6, label %_ZNSt11char_traitsIcE7compareEPKcS2_m.exit.thread.i.i, label %_ZNSt11char_traitsIcE7compareEPKcS2_m.exit.i.i

_ZNSt11char_traitsIcE7compareEPKcS2_m.exit.i.i:   ; preds = %1
  %.sroa.speculated.i.i = call i64 @llvm.umin.i64(i64 %5, i64 8)
  %bcmp.i = call i32 @bcmp(ptr %.pre.pre, ptr nonnull @.str, i64 %.sroa.speculated.i.i)
  %.not.i.i = icmp eq i32 %bcmp.i, 0
  br i1 %.not.i.i, label %_ZNSt11char_traitsIcE7compareEPKcS2_m.exit.thread.i.i, label %_ZSteqIcSt11char_traitsIcESaIcEEbRKNSt7__cxx1112basic_stringIT_T0_T1_EEPKS5_.exit

_ZNSt11char_traitsIcE7compareEPKcS2_m.exit.thread.i.i: ; preds = %_ZNSt11char_traitsIcE7compareEPKcS2_m.exit.i.i, %1
  %7 = add i64 %5, -8
  %spec.select7.i.i.i = call i64 @llvm.smax.i64(i64 %7, i64 -2147483648)
  %.08.i.i.i = call i64 @llvm.smin.i64(i64 %spec.select7.i.i.i, i64 2147483647)
  %8 = and i64 %.08.i.i.i, 4294967295
  %9 = icmp eq i64 %8, 0
  br label %_ZSteqIcSt11char_traitsIcESaIcEEbRKNSt7__cxx1112basic_stringIT_T0_T1_EEPKS5_.exit

_ZSteqIcSt11char_traitsIcESaIcEEbRKNSt7__cxx1112basic_stringIT_T0_T1_EEPKS5_.exit: ; preds = %_ZNSt11char_traitsIcE7compareEPKcS2_m.exit.i.i, %_ZNSt11char_traitsIcE7compareEPKcS2_m.exit.thread.i.i
  %.0.i.i = phi i1 [ false, %_ZNSt11char_traitsIcE7compareEPKcS2_m.exit.i.i ], [ %9, %_ZNSt11char_traitsIcE7compareEPKcS2_m.exit.thread.i.i ]
  %10 = getelementptr inbounds i8, ptr %2, i64 16
  %11 = icmp eq ptr %.pre.pre, %10
  br i1 %11, label %_ZNKSt7__cxx1112basic_stringIcSt11char_traitsIcESaIcEE11_M_is_localEv.exit.thread.i.i, label %_ZNKSt7__cxx1112basic_stringIcSt11char_traitsIcESaIcEE11_M_is_localEv.exit.i.i

_ZNKSt7__cxx1112basic_stringIcSt11char_traitsIcESaIcEE11_M_is_localEv.exit.thread.i.i: ; preds = %_ZSteqIcSt11char_traitsIcESaIcEEbRKNSt7__cxx1112basic_stringIT_T0_T1_EEPKS5_.exit
  %12 = icmp ult i64 %5, 16
  call void @llvm.assume(i1 %12)
  br label %_ZNSt7__cxx1112basic_stringIcSt11char_traitsIcESaIcEED2Ev.exit

_ZNKSt7__cxx1112basic_stringIcSt11char_traitsIcESaIcEE11_M_is_localEv.exit.i.i: ; preds = %_ZSteqIcSt11char_traitsIcESaIcEEbRKNSt7__cxx1112basic_stringIT_T0_T1_EEPKS5_.exit
  call void @_ZdlPv(ptr noundef %.pre.pre) #29
  br label %_ZNSt7__cxx1112basic_stringIcSt11char_traitsIcESaIcEED2Ev.exit

_ZNSt7__cxx1112basic_stringIcSt11char_traitsIcESaIcEED2Ev.exit: ; preds = %_ZNKSt7__cxx1112basic_stringIcSt11char_traitsIcESaIcEE11_M_is_localEv.exit.thread.i.i, %_ZNKSt7__cxx1112basic_stringIcSt11char_traitsIcESaIcEE11_M_is_localEv.exit.i.i
  call void @_ZNSaIcED2Ev(ptr noundef nonnull align 1 dereferenceable(1) %2) #26
  ret i1 %.0.i.i
}